; Function Attrs: nofree norecurse nosync nounwind memory(none) uwtable
define nonnull ptr @lv_file_explorer_get_current_path(ptr noundef readnone captures(address_is_null, ret: address, provenance) %0) local_unnamed_addr #4 {
  %.not = icmp eq ptr %0, null
  br i1 %.not, label %.preheader, label %2

.preheader:                                       ; preds = %1, %.preheader
  br label %.preheader

2:                                                ; preds = %1
  %3 = getelementptr inbounds nuw i8, ptr %0, i64 184
  ret ptr %3
}